ARM GAS  C:\Users\sulof\AppData\Local\Temp\ccvCLWGG.s 			page 1


   1              		.cpu cortex-m4
   2              		.arch armv7e-m
   3              		.fpu fpv4-sp-d16
   4              		.eabi_attribute 27, 1
   5              		.eabi_attribute 28, 1
   6              		.eabi_attribute 20, 1
   7              		.eabi_attribute 21, 1
   8              		.eabi_attribute 23, 3
   9              		.eabi_attribute 24, 1
  10              		.eabi_attribute 25, 1
  11              		.eabi_attribute 26, 1
  12              		.eabi_attribute 30, 1
  13              		.eabi_attribute 34, 1
  14              		.eabi_attribute 18, 4
  15              		.file	"gpio.c"
  16              		.text
  17              	.Ltext0:
  18              		.cfi_sections	.debug_frame
  19              		.file 1 "Core/Src/gpio.c"
  20              		.section	.text.start_clocks,"ax",%progbits
  21              		.align	1
  22              		.global	start_clocks
  23              		.syntax unified
  24              		.thumb
  25              		.thumb_func
  27              	start_clocks:
  28              	.LFB134:
   1:Core/Src/gpio.c **** #include "gpio.h"
   2:Core/Src/gpio.c **** 
   3:Core/Src/gpio.c **** void start_clocks() 
   4:Core/Src/gpio.c **** {
  29              		.loc 1 4 1 view -0
  30              		.cfi_startproc
  31              		@ args = 0, pretend = 0, frame = 24
  32              		@ frame_needed = 0, uses_anonymous_args = 0
  33              		@ link register save eliminated.
  34 0000 86B0     		sub	sp, sp, #24
  35              	.LCFI0:
  36              		.cfi_def_cfa_offset 24
   5:Core/Src/gpio.c ****     // Enable A and B channel clocks
   6:Core/Src/gpio.c ****     __HAL_RCC_GPIOA_CLK_ENABLE();
  37              		.loc 1 6 5 view .LVU1
  38              	.LBB2:
  39              		.loc 1 6 5 view .LVU2
  40 0002 0022     		movs	r2, #0
  41 0004 0192     		str	r2, [sp, #4]
  42              		.loc 1 6 5 view .LVU3
  43 0006 1A4B     		ldr	r3, .L3
  44 0008 196B     		ldr	r1, [r3, #48]
  45 000a 41F00101 		orr	r1, r1, #1
  46 000e 1963     		str	r1, [r3, #48]
  47              		.loc 1 6 5 view .LVU4
  48 0010 196B     		ldr	r1, [r3, #48]
  49 0012 01F00101 		and	r1, r1, #1
  50 0016 0191     		str	r1, [sp, #4]
  51              		.loc 1 6 5 view .LVU5
  52 0018 0199     		ldr	r1, [sp, #4]
ARM GAS  C:\Users\sulof\AppData\Local\Temp\ccvCLWGG.s 			page 2


  53              	.LBE2:
  54              		.loc 1 6 5 view .LVU6
   7:Core/Src/gpio.c ****     __HAL_RCC_GPIOB_CLK_ENABLE();
  55              		.loc 1 7 5 view .LVU7
  56              	.LBB3:
  57              		.loc 1 7 5 view .LVU8
  58 001a 0292     		str	r2, [sp, #8]
  59              		.loc 1 7 5 view .LVU9
  60 001c 196B     		ldr	r1, [r3, #48]
  61 001e 41F00201 		orr	r1, r1, #2
  62 0022 1963     		str	r1, [r3, #48]
  63              		.loc 1 7 5 view .LVU10
  64 0024 196B     		ldr	r1, [r3, #48]
  65 0026 01F00201 		and	r1, r1, #2
  66 002a 0291     		str	r1, [sp, #8]
  67              		.loc 1 7 5 view .LVU11
  68 002c 0299     		ldr	r1, [sp, #8]
  69              	.LBE3:
  70              		.loc 1 7 5 view .LVU12
   8:Core/Src/gpio.c ****     
   9:Core/Src/gpio.c ****     // Enable TIMER clocks
  10:Core/Src/gpio.c ****     __HAL_RCC_TIM1_CLK_ENABLE();
  71              		.loc 1 10 5 view .LVU13
  72              	.LBB4:
  73              		.loc 1 10 5 view .LVU14
  74 002e 0392     		str	r2, [sp, #12]
  75              		.loc 1 10 5 view .LVU15
  76 0030 596C     		ldr	r1, [r3, #68]
  77 0032 41F00101 		orr	r1, r1, #1
  78 0036 5964     		str	r1, [r3, #68]
  79              		.loc 1 10 5 view .LVU16
  80 0038 596C     		ldr	r1, [r3, #68]
  81 003a 01F00101 		and	r1, r1, #1
  82 003e 0391     		str	r1, [sp, #12]
  83              		.loc 1 10 5 view .LVU17
  84 0040 0399     		ldr	r1, [sp, #12]
  85              	.LBE4:
  86              		.loc 1 10 5 view .LVU18
  11:Core/Src/gpio.c ****     __HAL_RCC_TIM2_CLK_ENABLE();
  87              		.loc 1 11 5 view .LVU19
  88              	.LBB5:
  89              		.loc 1 11 5 view .LVU20
  90 0042 0492     		str	r2, [sp, #16]
  91              		.loc 1 11 5 view .LVU21
  92 0044 196C     		ldr	r1, [r3, #64]
  93 0046 41F00101 		orr	r1, r1, #1
  94 004a 1964     		str	r1, [r3, #64]
  95              		.loc 1 11 5 view .LVU22
  96 004c 196C     		ldr	r1, [r3, #64]
  97 004e 01F00101 		and	r1, r1, #1
  98 0052 0491     		str	r1, [sp, #16]
  99              		.loc 1 11 5 view .LVU23
 100 0054 0499     		ldr	r1, [sp, #16]
 101              	.LBE5:
 102              		.loc 1 11 5 view .LVU24
  12:Core/Src/gpio.c ****     __HAL_RCC_TIM3_CLK_ENABLE();
 103              		.loc 1 12 5 view .LVU25
ARM GAS  C:\Users\sulof\AppData\Local\Temp\ccvCLWGG.s 			page 3


 104              	.LBB6:
 105              		.loc 1 12 5 view .LVU26
 106 0056 0592     		str	r2, [sp, #20]
 107              		.loc 1 12 5 view .LVU27
 108 0058 1A6C     		ldr	r2, [r3, #64]
 109 005a 42F00202 		orr	r2, r2, #2
 110 005e 1A64     		str	r2, [r3, #64]
 111              		.loc 1 12 5 view .LVU28
 112 0060 1B6C     		ldr	r3, [r3, #64]
 113 0062 03F00203 		and	r3, r3, #2
 114 0066 0593     		str	r3, [sp, #20]
 115              		.loc 1 12 5 view .LVU29
 116 0068 059B     		ldr	r3, [sp, #20]
 117              	.LBE6:
 118              		.loc 1 12 5 view .LVU30
  13:Core/Src/gpio.c **** }
 119              		.loc 1 13 1 is_stmt 0 view .LVU31
 120 006a 06B0     		add	sp, sp, #24
 121              	.LCFI1:
 122              		.cfi_def_cfa_offset 0
 123              		@ sp needed
 124 006c 7047     		bx	lr
 125              	.L4:
 126 006e 00BF     		.align	2
 127              	.L3:
 128 0070 00380240 		.word	1073887232
 129              		.cfi_endproc
 130              	.LFE134:
 132              		.section	.text.gpio_init,"ax",%progbits
 133              		.align	1
 134              		.global	gpio_init
 135              		.syntax unified
 136              		.thumb
 137              		.thumb_func
 139              	gpio_init:
 140              	.LFB135:
  14:Core/Src/gpio.c **** 
  15:Core/Src/gpio.c **** void gpio_init() 
  16:Core/Src/gpio.c **** {
 141              		.loc 1 16 1 is_stmt 1 view -0
 142              		.cfi_startproc
 143              		@ args = 0, pretend = 0, frame = 48
 144              		@ frame_needed = 0, uses_anonymous_args = 0
 145 0000 2DE9F041 		push	{r4, r5, r6, r7, r8, lr}
 146              	.LCFI2:
 147              		.cfi_def_cfa_offset 24
 148              		.cfi_offset 4, -24
 149              		.cfi_offset 5, -20
 150              		.cfi_offset 6, -16
 151              		.cfi_offset 7, -12
 152              		.cfi_offset 8, -8
 153              		.cfi_offset 14, -4
 154 0004 8CB0     		sub	sp, sp, #48
 155              	.LCFI3:
 156              		.cfi_def_cfa_offset 72
  17:Core/Src/gpio.c ****     start_clocks();
 157              		.loc 1 17 5 view .LVU33
ARM GAS  C:\Users\sulof\AppData\Local\Temp\ccvCLWGG.s 			page 4


 158 0006 FFF7FEFF 		bl	start_clocks
 159              	.LVL0:
  18:Core/Src/gpio.c **** 
  19:Core/Src/gpio.c ****     __HAL_RCC_GPIOA_CLK_ENABLE();
 160              		.loc 1 19 5 view .LVU34
 161              	.LBB7:
 162              		.loc 1 19 5 view .LVU35
 163 000a 0024     		movs	r4, #0
 164 000c 0194     		str	r4, [sp, #4]
 165              		.loc 1 19 5 view .LVU36
 166 000e 1E4B     		ldr	r3, .L7
 167 0010 1A6B     		ldr	r2, [r3, #48]
 168 0012 42F00102 		orr	r2, r2, #1
 169 0016 1A63     		str	r2, [r3, #48]
 170              		.loc 1 19 5 view .LVU37
 171 0018 1B6B     		ldr	r3, [r3, #48]
 172 001a 03F00103 		and	r3, r3, #1
 173 001e 0193     		str	r3, [sp, #4]
 174              		.loc 1 19 5 view .LVU38
 175 0020 019B     		ldr	r3, [sp, #4]
 176              	.LBE7:
 177              		.loc 1 19 5 view .LVU39
  20:Core/Src/gpio.c **** 
  21:Core/Src/gpio.c ****     GPIO_InitTypeDef led_struct = {0};
 178              		.loc 1 21 5 view .LVU40
 179              		.loc 1 21 22 is_stmt 0 view .LVU41
 180 0022 07A9     		add	r1, sp, #28
 181 0024 0794     		str	r4, [sp, #28]
 182 0026 4C60     		str	r4, [r1, #4]
 183 0028 8C60     		str	r4, [r1, #8]
 184 002a CC60     		str	r4, [r1, #12]
 185 002c 0C61     		str	r4, [r1, #16]
  22:Core/Src/gpio.c ****     led_struct.Pin = GPIO_PIN_5;
 186              		.loc 1 22 5 is_stmt 1 view .LVU42
 187              		.loc 1 22 20 is_stmt 0 view .LVU43
 188 002e 2023     		movs	r3, #32
 189 0030 0793     		str	r3, [sp, #28]
  23:Core/Src/gpio.c ****     led_struct.Mode = GPIO_MODE_OUTPUT_PP;
 190              		.loc 1 23 5 is_stmt 1 view .LVU44
 191              		.loc 1 23 21 is_stmt 0 view .LVU45
 192 0032 0126     		movs	r6, #1
 193 0034 0896     		str	r6, [sp, #32]
  24:Core/Src/gpio.c ****     led_struct.Pull = GPIO_NOPULL;
 194              		.loc 1 24 5 is_stmt 1 view .LVU46
  25:Core/Src/gpio.c ****     led_struct.Speed = GPIO_SPEED_FREQ_LOW;
 195              		.loc 1 25 5 view .LVU47
  26:Core/Src/gpio.c ****     HAL_GPIO_Init(GPIOA, &led_struct);
 196              		.loc 1 26 5 view .LVU48
 197 0036 DFF85880 		ldr	r8, .L7+8
 198 003a 4046     		mov	r0, r8
 199 003c FFF7FEFF 		bl	HAL_GPIO_Init
 200              	.LVL1:
  27:Core/Src/gpio.c **** 
  28:Core/Src/gpio.c ****     // Init pwm pin PB10
  29:Core/Src/gpio.c ****     GPIO_InitTypeDef pwm_struct = {0};
 201              		.loc 1 29 5 view .LVU49
 202              		.loc 1 29 22 is_stmt 0 view .LVU50
ARM GAS  C:\Users\sulof\AppData\Local\Temp\ccvCLWGG.s 			page 5


 203 0040 02AD     		add	r5, sp, #8
 204 0042 0294     		str	r4, [sp, #8]
 205 0044 0394     		str	r4, [sp, #12]
 206 0046 0494     		str	r4, [sp, #16]
 207 0048 0594     		str	r4, [sp, #20]
 208 004a 0694     		str	r4, [sp, #24]
  30:Core/Src/gpio.c ****     pwm_struct.Pin = GPIO_PIN_10;
 209              		.loc 1 30 5 is_stmt 1 view .LVU51
 210              		.loc 1 30 20 is_stmt 0 view .LVU52
 211 004c 4FF48063 		mov	r3, #1024
 212 0050 0293     		str	r3, [sp, #8]
  31:Core/Src/gpio.c ****     pwm_struct.Mode = GPIO_MODE_AF_PP;
 213              		.loc 1 31 5 is_stmt 1 view .LVU53
 214              		.loc 1 31 21 is_stmt 0 view .LVU54
 215 0052 0224     		movs	r4, #2
 216 0054 0394     		str	r4, [sp, #12]
  32:Core/Src/gpio.c ****     pwm_struct.Pull = GPIO_NOPULL;
 217              		.loc 1 32 5 is_stmt 1 view .LVU55
  33:Core/Src/gpio.c ****     pwm_struct.Speed = GPIO_SPEED_FREQ_HIGH;
 218              		.loc 1 33 5 view .LVU56
 219              		.loc 1 33 22 is_stmt 0 view .LVU57
 220 0056 0594     		str	r4, [sp, #20]
  34:Core/Src/gpio.c ****     pwm_struct.Alternate = GPIO_AF1_TIM2;
 221              		.loc 1 34 5 is_stmt 1 view .LVU58
 222              		.loc 1 34 26 is_stmt 0 view .LVU59
 223 0058 0696     		str	r6, [sp, #24]
  35:Core/Src/gpio.c ****     HAL_GPIO_Init(GPIOB, &pwm_struct);
 224              		.loc 1 35 5 is_stmt 1 view .LVU60
 225 005a 0C4F     		ldr	r7, .L7+4
 226 005c 2946     		mov	r1, r5
 227 005e 3846     		mov	r0, r7
 228 0060 FFF7FEFF 		bl	HAL_GPIO_Init
 229              	.LVL2:
  36:Core/Src/gpio.c **** 
  37:Core/Src/gpio.c ****     // Init pwm pin PA8
  38:Core/Src/gpio.c ****     pwm_struct.Pin = GPIO_PIN_8;
 230              		.loc 1 38 5 view .LVU61
 231              		.loc 1 38 20 is_stmt 0 view .LVU62
 232 0064 4FF48073 		mov	r3, #256
 233 0068 0293     		str	r3, [sp, #8]
  39:Core/Src/gpio.c ****     pwm_struct.Alternate = GPIO_AF1_TIM1;
 234              		.loc 1 39 5 is_stmt 1 view .LVU63
 235              		.loc 1 39 26 is_stmt 0 view .LVU64
 236 006a 0696     		str	r6, [sp, #24]
  40:Core/Src/gpio.c ****     HAL_GPIO_Init(GPIOA, &pwm_struct);
 237              		.loc 1 40 5 is_stmt 1 view .LVU65
 238 006c 2946     		mov	r1, r5
 239 006e 4046     		mov	r0, r8
 240 0070 FFF7FEFF 		bl	HAL_GPIO_Init
 241              	.LVL3:
  41:Core/Src/gpio.c **** 
  42:Core/Src/gpio.c ****     // Init pwm pin PB4
  43:Core/Src/gpio.c ****     pwm_struct.Pin = GPIO_PIN_4;
 242              		.loc 1 43 5 view .LVU66
 243              		.loc 1 43 20 is_stmt 0 view .LVU67
 244 0074 1023     		movs	r3, #16
 245 0076 0293     		str	r3, [sp, #8]
ARM GAS  C:\Users\sulof\AppData\Local\Temp\ccvCLWGG.s 			page 6


  44:Core/Src/gpio.c ****     pwm_struct.Alternate = GPIO_AF2_TIM3;
 246              		.loc 1 44 5 is_stmt 1 view .LVU68
 247              		.loc 1 44 26 is_stmt 0 view .LVU69
 248 0078 0694     		str	r4, [sp, #24]
  45:Core/Src/gpio.c ****     HAL_GPIO_Init(GPIOB, &pwm_struct);    
 249              		.loc 1 45 5 is_stmt 1 view .LVU70
 250 007a 2946     		mov	r1, r5
 251 007c 3846     		mov	r0, r7
 252 007e FFF7FEFF 		bl	HAL_GPIO_Init
 253              	.LVL4:
  46:Core/Src/gpio.c **** }
 254              		.loc 1 46 1 is_stmt 0 view .LVU71
 255 0082 0CB0     		add	sp, sp, #48
 256              	.LCFI4:
 257              		.cfi_def_cfa_offset 24
 258              		@ sp needed
 259 0084 BDE8F081 		pop	{r4, r5, r6, r7, r8, pc}
 260              	.L8:
 261              		.align	2
 262              	.L7:
 263 0088 00380240 		.word	1073887232
 264 008c 00040240 		.word	1073873920
 265 0090 00000240 		.word	1073872896
 266              		.cfi_endproc
 267              	.LFE135:
 269              		.section	.text.gpio_toggle,"ax",%progbits
 270              		.align	1
 271              		.global	gpio_toggle
 272              		.syntax unified
 273              		.thumb
 274              		.thumb_func
 276              	gpio_toggle:
 277              	.LFB136:
  47:Core/Src/gpio.c **** 
  48:Core/Src/gpio.c **** void gpio_toggle() 
  49:Core/Src/gpio.c **** {
 278              		.loc 1 49 1 is_stmt 1 view -0
 279              		.cfi_startproc
 280              		@ args = 0, pretend = 0, frame = 0
 281              		@ frame_needed = 0, uses_anonymous_args = 0
 282 0000 08B5     		push	{r3, lr}
 283              	.LCFI5:
 284              		.cfi_def_cfa_offset 8
 285              		.cfi_offset 3, -8
 286              		.cfi_offset 14, -4
  50:Core/Src/gpio.c ****     HAL_GPIO_TogglePin(GPIOA, GPIO_PIN_5);
 287              		.loc 1 50 5 view .LVU73
 288 0002 2021     		movs	r1, #32
 289 0004 0148     		ldr	r0, .L11
 290 0006 FFF7FEFF 		bl	HAL_GPIO_TogglePin
 291              	.LVL5:
  51:Core/Src/gpio.c **** }...
 292              		.loc 1 51 1 is_stmt 0 view .LVU74
 293 000a 08BD     		pop	{r3, pc}
 294              	.L12:
 295              		.align	2
 296              	.L11:
ARM GAS  C:\Users\sulof\AppData\Local\Temp\ccvCLWGG.s 			page 7


 297 000c 00000240 		.word	1073872896
 298              		.cfi_endproc
 299              	.LFE136:
 301              		.text
 302              	.Letext0:
 303              		.file 2 "C:/Program Files (x86)/Arm GNU Toolchain arm-none-eabi/14.3 rel1/arm-none-eabi/include/ma
 304              		.file 3 "C:/Program Files (x86)/Arm GNU Toolchain arm-none-eabi/14.3 rel1/arm-none-eabi/include/sy
 305              		.file 4 "Drivers/CMSIS/Device/ST/STM32F4xx/Include/stm32f446xx.h"
 306              		.file 5 "Drivers/STM32F4xx_HAL_Driver/Inc/stm32f4xx_hal_gpio.h"
ARM GAS  C:\Users\sulof\AppData\Local\Temp\ccvCLWGG.s 			page 8

